; Function Attrs: mustprogress nounwind uwtable
define dso_local i32 @_ZNK4llvm19TargetTransformInfo29getPredictableBranchThresholdEv(ptr nocapture noundef nonnull readonly align 8 dereferenceable(8) %0) local_unnamed_addr #0 align 2 {
  %2 = alloca %"class.llvm::BranchProbability", align 4
  %3 = load i16, ptr getelementptr inbounds nuw (i8, ptr @_ZL26PredictableBranchThreshold, i64 8), align 8
  %.not = icmp eq i16 %3, 0
  br i1 %.not, label %6, label %4

4:                                                ; preds = %1
  %5 = load i32, ptr getelementptr inbounds (i8, ptr @_ZL26PredictableBranchThreshold, i64 128), align 8
  call void @_ZN4llvm17BranchProbabilityC1Ejj(ptr noundef nonnull align 4 dereferenceable(4) %2, i32 noundef %5, i32 noundef 100) #25
  %.pre = load i32, ptr %2, align 4
  br label %12

6:                                                ; preds = %1
  %7 = load ptr, ptr %0, align 8
  %8 = load ptr, ptr %7, align 8
  %9 = getelementptr inbounds i8, ptr %8, i64 120
  %10 = load ptr, ptr %9, align 8
  %11 = tail call i32 %10(ptr noundef nonnull align 8 dereferenceable(8) %7) #25
  br label %12

12:                                               ; preds = %6, %4
  %13 = phi i32 [ %11, %6 ], [ %.pre, %4 ]
  ret i32 %13
}